; Function Attrs: nounwind uwtable
define ptr @l_Lean_Elab_instToSnapshotTreeDefsParsedSnapshot(ptr noundef %0) local_unnamed_addr #1 {
  %.val = load i32, ptr %0, align 4, !tbaa !4
  %2 = icmp eq i32 %.val, 1
  br i1 %2, label %3, label %8

3:                                                ; preds = %1
  %4 = getelementptr inbounds nuw i8, ptr %0, i64 16
  %5 = load ptr, ptr %4, align 8, !tbaa !10
  %6 = getelementptr i8, ptr %5, i64 8
  %.val26 = load i64, ptr %6, align 8, !tbaa !15
  %7 = tail call ptr @l_Array_mapMUnsafe_map___at_Lean_Elab_instToSnapshotTreeDefsParsedSnapshot___spec__1(i64 noundef %.val26, i64 noundef 0, ptr noundef %5)
  store ptr %7, ptr %4, align 8, !tbaa !10
  br label %46

8:                                                ; preds = %1
  %9 = getelementptr inbounds nuw i8, ptr %0, i64 8
  %10 = load ptr, ptr %9, align 8, !tbaa !10
  %11 = getelementptr inbounds nuw i8, ptr %0, i64 16
  %12 = load ptr, ptr %11, align 8, !tbaa !10
  %13 = ptrtoint ptr %12 to i64
  %14 = and i64 %13, 1
  %.not = icmp eq i64 %14, 0
  br i1 %.not, label %15, label %lean_inc.exit24

15:                                               ; preds = %8
  %.val.i = load i32, ptr %12, align 4, !tbaa !4
  %16 = icmp sgt i32 %.val.i, 0
  br i1 %16, label %17, label %19, !prof !9

17:                                               ; preds = %15
  %18 = add nuw i32 %.val.i, 1
  store i32 %18, ptr %12, align 4, !tbaa !4
  br label %lean_inc.exit24

19:                                               ; preds = %15
  %.not.i27 = icmp eq i32 %.val.i, 0
  br i1 %.not.i27, label %lean_inc.exit24, label %20

20:                                               ; preds = %19
  tail call void @lean_inc_ref_cold(ptr noundef nonnull %12) #7
  br label %lean_inc.exit24

lean_inc.exit24:                                  ; preds = %20, %19, %17, %8
  %21 = ptrtoint ptr %10 to i64
  %22 = and i64 %21, 1
  %.not31 = icmp eq i64 %22, 0
  br i1 %.not31, label %23, label %lean_inc.exit

23:                                               ; preds = %lean_inc.exit24
  %.val.i28 = load i32, ptr %10, align 4, !tbaa !4
  %24 = icmp sgt i32 %.val.i28, 0
  br i1 %24, label %25, label %27, !prof !9

25:                                               ; preds = %23
  %26 = add nuw i32 %.val.i28, 1
  store i32 %26, ptr %10, align 4, !tbaa !4
  br label %lean_inc.exit

27:                                               ; preds = %23
  %.not.i29 = icmp eq i32 %.val.i28, 0
  br i1 %.not.i29, label %lean_inc.exit, label %28

28:                                               ; preds = %27
  tail call void @lean_inc_ref_cold(ptr noundef nonnull %10) #7
  br label %lean_inc.exit

lean_inc.exit:                                    ; preds = %28, %27, %25, %lean_inc.exit24
  %29 = ptrtoint ptr %0 to i64
  %30 = and i64 %29, 1
  %.not32 = icmp eq i64 %30, 0
  br i1 %.not32, label %31, label %lean_dec.exit

31:                                               ; preds = %lean_inc.exit
  %32 = load i32, ptr %0, align 4, !tbaa !4
  %33 = icmp sgt i32 %32, 1
  br i1 %33, label %34, label %36, !prof !9

34:                                               ; preds = %31
  %35 = add nsw i32 %32, -1
  store i32 %35, ptr %0, align 4, !tbaa !4
  br label %lean_dec.exit

36:                                               ; preds = %31
  %.not.i = icmp eq i32 %32, 0
  br i1 %.not.i, label %lean_dec.exit, label %37

37:                                               ; preds = %36
  tail call void @lean_dec_ref_cold(ptr noundef nonnull %0) #7
  br label %lean_dec.exit

lean_dec.exit:                                    ; preds = %37, %36, %34, %lean_inc.exit
  %38 = getelementptr i8, ptr %12, i64 8
  %.val25 = load i64, ptr %38, align 8, !tbaa !15
  %39 = tail call ptr @l_Array_mapMUnsafe_map___at_Lean_Elab_instToSnapshotTreeDefsParsedSnapshot___spec__1(i64 noundef %.val25, i64 noundef 0, ptr noundef %12)
  tail call void @lean_inc_heartbeat() #7
  %40 = tail call noalias ptr @mi_malloc_small(i64 noundef 24) #7
  %41 = icmp eq ptr %40, null
  br i1 %41, label %42, label %lean_alloc_ctor.exit

42:                                               ; preds = %lean_dec.exit
  tail call void @lean_internal_panic_out_of_memory() #8
  unreachable

lean_alloc_ctor.exit:                             ; preds = %lean_dec.exit
  %43 = getelementptr inbounds nuw i8, ptr %40, i64 4
  store i32 1, ptr %40, align 4, !tbaa !4
  store i32 131096, ptr %43, align 4
  %44 = getelementptr inbounds nuw i8, ptr %40, i64 8
  store ptr %10, ptr %44, align 8, !tbaa !10
  %45 = getelementptr inbounds nuw i8, ptr %40, i64 16
  store ptr %39, ptr %45, align 8, !tbaa !10
  br label %46

46:                                               ; preds = %lean_alloc_ctor.exit, %3
  %.0 = phi ptr [ %0, %3 ], [ %40, %lean_alloc_ctor.exit ]
  ret ptr %.0
}